target datalayout = "e-m:e-p270:32:32-p271:32:32-p272:64:64-i64:64-i128:128-f80:128-n8:16:32:64-S128"
target triple = "x86_64-unknown-linux-gnu"

%"struct.net::(anonymous namespace)::CertSet" = type { i64, ptr, ptr, i64 }
%"class.base::BasicStringPiece" = type { ptr, i64 }

; Function Attrs: mustprogress uwtable
define internal { ptr, i64 } @_ZNK3net12_GLOBAL__N_118CommonCertSetsQUIC7GetCertB5cxx11Emj(ptr noundef nonnull align 8 dereferenceable(8) %this, i64 noundef %hash, i32 noundef %index) unnamed_addr #2 align 2 {
entry:
  %retval = alloca %"class.base::BasicStringPiece", align 8
  %this.addr = alloca ptr, align 8
  %hash.addr = alloca i64, align 8
  %index.addr = alloca i32, align 4
  %i = alloca i64, align 8
  store ptr %this, ptr %this.addr, align 8
  store i64 %hash, ptr %hash.addr, align 8
  store i32 %index, ptr %index.addr, align 4
  store i64 0, ptr %i, align 8
  br label %for.cond

for.cond:                                         ; preds = %for.inc, %entry
  %0 = load i64, ptr %i, align 8
  %cmp = icmp ult i64 %0, 2
  br i1 %cmp, label %for.body, label %for.end

for.body:                                         ; preds = %for.cond
  %1 = load i64, ptr %i, align 8
  %arrayidx = getelementptr inbounds [2 x %"struct.net::(anonymous namespace)::CertSet"], ptr @_ZN3net12_GLOBAL__N_15kSetsE, i64 0, i64 %1
  %hash2 = getelementptr inbounds %"struct.net::(anonymous namespace)::CertSet", ptr %arrayidx, i32 0, i32 3
  %2 = load i64, ptr %hash2, align 8
  %3 = load i64, ptr %hash.addr, align 8
  %cmp3 = icmp eq i64 %2, %3
  br i1 %cmp3, label %if.then, label %if.end12

if.then:                                          ; preds = %for.body
  %4 = load i32, ptr %index.addr, align 4
  %conv = zext i32 %4 to i64
  %5 = load i64, ptr %i, align 8
  %arrayidx4 = getelementptr inbounds [2 x %"struct.net::(anonymous namespace)::CertSet"], ptr @_ZN3net12_GLOBAL__N_15kSetsE, i64 0, i64 %5
  %num_certs = getelementptr inbounds %"struct.net::(anonymous namespace)::CertSet", ptr %arrayidx4, i32 0, i32 0
  %6 = load i64, ptr %num_certs, align 16
  %cmp5 = icmp ult i64 %conv, %6
  br i1 %cmp5, label %if.then6, label %if.end

if.then6:                                         ; preds = %if.then
  %7 = load i64, ptr %i, align 8
  %arrayidx7 = getelementptr inbounds [2 x %"struct.net::(anonymous namespace)::CertSet"], ptr @_ZN3net12_GLOBAL__N_15kSetsE, i64 0, i64 %7
  %certs = getelementptr inbounds %"struct.net::(anonymous namespace)::CertSet", ptr %arrayidx7, i32 0, i32 1
  %8 = load ptr, ptr %certs, align 8
  %9 = load i32, ptr %index.addr, align 4
  %idxprom = zext i32 %9 to i64
  %arrayidx8 = getelementptr inbounds ptr, ptr %8, i64 %idxprom
  %10 = load ptr, ptr %arrayidx8, align 8
  %11 = load i64, ptr %i, align 8
  %arrayidx9 = getelementptr inbounds [2 x %"struct.net::(anonymous namespace)::CertSet"], ptr @_ZN3net12_GLOBAL__N_15kSetsE, i64 0, i64 %11
  %lens = getelementptr inbounds %"struct.net::(anonymous namespace)::CertSet", ptr %arrayidx9, i32 0, i32 2
  %12 = load ptr, ptr %lens, align 16
  %13 = load i32, ptr %index.addr, align 4
  %idxprom10 = zext i32 %13 to i64
  %arrayidx11 = getelementptr inbounds i64, ptr %12, i64 %idxprom10
  %14 = load i64, ptr %arrayidx11, align 8
  call void @_ZN4base16BasicStringPieceINSt7__cxx1112basic_stringIcSt11char_traitsIcESaIcEEEEC1EPKcm(ptr noundef nonnull align 8 dereferenceable(16) %retval, ptr noundef %10, i64 noundef %14)
  br label %return

if.end:                                           ; preds = %if.then
  br label %for.end

if.end12:                                         ; preds = %for.body
  br label %for.inc

for.inc:                                          ; preds = %if.end12
  %15 = load i64, ptr %i, align 8
  %inc = add i64 %15, 1
  store i64 %inc, ptr %i, align 8
  br label %for.cond, !llvm.loop !5

for.end:                                          ; preds = %if.end, %for.cond
  call void @_ZN4base16BasicStringPieceINSt7__cxx1112basic_stringIcSt11char_traitsIcESaIcEEEEC1Ev(ptr noundef nonnull align 8 dereferenceable(16) %retval)
  br label %return

return:                                           ; preds = %for.end, %if.then6
  %16 = load { ptr, i64 }, ptr %retval, align 8
  ret { ptr, i64 } %16
}