; Function Attrs: mustprogress uwtable
define internal { ptr, i64 } @_ZNK3net12_GLOBAL__N_118CommonCertSetsQUIC7GetCertB5cxx11Emj(ptr nocapture nonnull readnone align 8 %this, i64 noundef %hash, i32 noundef %index) unnamed_addr #3 align 2 {
entry:
  %retval = alloca %"class.base::BasicStringPiece", align 8
  br label %for.body

for.cond:                                         ; preds = %for.body
  br i1 %cmp, label %for.body, label %for.end, !llvm.loop !5

for.body:                                         ; preds = %entry, %for.cond
  %cmp = phi i1 [ true, %entry ], [ false, %for.cond ]
  %i.08 = phi i64 [ 0, %entry ], [ 1, %for.cond ]
  %arrayidx = getelementptr inbounds [2 x %"struct.net::(anonymous namespace)::CertSet"], ptr @_ZN3net12_GLOBAL__N_15kSetsE, i64 0, i64 %i.08
  %hash2 = getelementptr inbounds i8, ptr %arrayidx, i64 24
  %0 = load i64, ptr %hash2, align 8
  %cmp3 = icmp eq i64 %0, %hash
  br i1 %cmp3, label %if.then, label %for.cond

if.then:                                          ; preds = %for.body
  %conv = zext i32 %index to i64
  %1 = load i64, ptr %arrayidx, align 16
  %cmp5 = icmp ugt i64 %1, %conv
  br i1 %cmp5, label %if.then6, label %for.end

if.then6:                                         ; preds = %if.then
  %certs = getelementptr inbounds i8, ptr %arrayidx, i64 8
  %2 = load ptr, ptr %certs, align 8
  %arrayidx8 = getelementptr inbounds ptr, ptr %2, i64 %conv
  %3 = load ptr, ptr %arrayidx8, align 8
  %lens = getelementptr inbounds i8, ptr %arrayidx, i64 16
  %4 = load ptr, ptr %lens, align 16
  %arrayidx11 = getelementptr inbounds i64, ptr %4, i64 %conv
  %5 = load i64, ptr %arrayidx11, align 8
  call void @_ZN4base16BasicStringPieceINSt7__cxx1112basic_stringIcSt11char_traitsIcESaIcEEEEC1EPKcm(ptr noundef nonnull align 8 dereferenceable(16) %retval, ptr noundef %3, i64 noundef %5)
  br label %return

for.end:                                          ; preds = %for.cond, %if.then
  call void @_ZN4base16BasicStringPieceINSt7__cxx1112basic_stringIcSt11char_traitsIcESaIcEEEEC1Ev(ptr noundef nonnull align 8 dereferenceable(16) %retval)
  br label %return

return:                                           ; preds = %for.end, %if.then6
  %.fca.0.load = load ptr, ptr %retval, align 8
  %.fca.0.insert = insertvalue { ptr, i64 } poison, ptr %.fca.0.load, 0
  %.fca.1.gep = getelementptr inbounds i8, ptr %retval, i64 8
  %.fca.1.load = load i64, ptr %.fca.1.gep, align 8
  %.fca.1.insert = insertvalue { ptr, i64 } %.fca.0.insert, i64 %.fca.1.load, 1
  ret { ptr, i64 } %.fca.1.insert
}